target datalayout = "e-m:e-p270:32:32-p271:32:32-p272:64:64-i64:64-i128:128-f80:128-n8:16:32:64-S128"
target triple = "x86_64-pc-linux-gnu"

%union.pthread_mutex_t = type { %struct.__pthread_mutex_s }
%struct.__pthread_mutex_s = type { i32, i32, i32, i32, i32, i16, i16, %struct.__pthread_internal_list }
%struct.__pthread_internal_list = type { ptr, ptr }
%struct.git_attr = type { i32, [0 x i8] }
%struct.attr_hashmap = type { %struct.hashmap, %union.pthread_mutex_t }
%struct.hashmap = type { ptr, ptr, ptr, i32, i32, i32, i32, i8 }
%struct.attr_hash_entry = type { %struct.hashmap_entry, ptr, i64, ptr }
%struct.hashmap_entry = type { ptr, i32 }

@.str.11 = private unnamed_addr constant [35 x i8] c"unable to add additional attribute\00", align 1
@.str.12 = private unnamed_addr constant [12 x i8] c"./hashmap.h\00", align 1
@.str.13 = private unnamed_addr constant [31 x i8] c"hashmap_get_size: size not set\00", align 1
@.str.18 = private unnamed_addr constant [27 x i8] c"size_t overflow: %lu + %lu\00", align 1

; Function Attrs: inlinehint nounwind uwtable
define internal ptr @container_of_or_null_offset(ptr noundef %0, i64 noundef %1) #5 {
  %3 = alloca ptr, align 8
  %4 = alloca i64, align 8
  store ptr %0, ptr %3, align 8, !tbaa !50
  store i64 %1, ptr %4, align 8, !tbaa !11
  %5 = load ptr, ptr %3, align 8, !tbaa !50
  %6 = icmp ne ptr %5, null
  br i1 %6, label %7, label %12

7:                                                ; preds = %2
  %8 = load ptr, ptr %3, align 8, !tbaa !50
  %9 = load i64, ptr %4, align 8, !tbaa !11
  %10 = sub i64 0, %9
  %11 = getelementptr inbounds i8, ptr %8, i64 %10
  br label %13

12:                                               ; preds = %2
  br label %13

13:                                               ; preds = %12, %7
  %14 = phi ptr [ %11, %7 ], [ null, %12 ]
  ret ptr %14
}

; Function Attrs: inlinehint nounwind uwtable
define internal void @hashmap_entry_init(ptr noundef %0, i32 noundef %1) #5 {
  %3 = alloca ptr, align 8
  %4 = alloca i32, align 4
  store ptr %0, ptr %3, align 8, !tbaa !91
  store i32 %1, ptr %4, align 4, !tbaa !13
  %5 = load i32, ptr %4, align 4, !tbaa !13
  %6 = load ptr, ptr %3, align 8, !tbaa !91
  %7 = getelementptr inbounds nuw %struct.hashmap_entry, ptr %6, i32 0, i32 1
  store i32 %5, ptr %7, align 8, !tbaa !92
  %8 = load ptr, ptr %3, align 8, !tbaa !91
  %9 = getelementptr inbounds nuw %struct.hashmap_entry, ptr %8, i32 0, i32 0
  store ptr null, ptr %9, align 8, !tbaa !93
  ret void
}

; Function Attrs: inlinehint nounwind uwtable
define internal void @hashmap_unlock(ptr noundef %0) #5 {
  %2 = alloca ptr, align 8
  store ptr %0, ptr %2, align 8, !tbaa !76
  %3 = load ptr, ptr %2, align 8, !tbaa !76
  %4 = getelementptr inbounds nuw %struct.attr_hashmap, ptr %3, i32 0, i32 1
  %5 = call i32 @pthread_mutex_unlock(ptr noundef %4) #11
  ret void
}

; Function Attrs: nounwind uwtable
define internal void @attr_hashmap_add(ptr noundef %0, ptr noundef %1, i64 noundef %2, ptr noundef %3) #0 {
  %5 = alloca ptr, align 8
  %6 = alloca ptr, align 8
  %7 = alloca i64, align 8
  %8 = alloca ptr, align 8
  %9 = alloca ptr, align 8
  store ptr %0, ptr %5, align 8, !tbaa !76
  store ptr %1, ptr %6, align 8, !tbaa !9
  store i64 %2, ptr %7, align 8, !tbaa !11
  store ptr %3, ptr %8, align 8, !tbaa !50
  call void @llvm.lifetime.start.p0(i64 8, ptr %9) #11
  %10 = call ptr @xmalloc(i64 noundef 40)
  store ptr %10, ptr %9, align 8, !tbaa !83
  %11 = load ptr, ptr %9, align 8, !tbaa !83
  %12 = getelementptr inbounds nuw %struct.attr_hash_entry, ptr %11, i32 0, i32 0
  %13 = load ptr, ptr %6, align 8, !tbaa !9
  %14 = load i64, ptr %7, align 8, !tbaa !11
  %15 = call i32 @memhash(ptr noundef %13, i64 noundef %14)
  call void @hashmap_entry_init(ptr noundef %12, i32 noundef %15)
  %16 = load ptr, ptr %6, align 8, !tbaa !9
  %17 = load ptr, ptr %9, align 8, !tbaa !83
  %18 = getelementptr inbounds nuw %struct.attr_hash_entry, ptr %17, i32 0, i32 1
  store ptr %16, ptr %18, align 8, !tbaa !78
  %19 = load i64, ptr %7, align 8, !tbaa !11
  %20 = load ptr, ptr %9, align 8, !tbaa !83
  %21 = getelementptr inbounds nuw %struct.attr_hash_entry, ptr %20, i32 0, i32 2
  store i64 %19, ptr %21, align 8, !tbaa !82
  %22 = load ptr, ptr %8, align 8, !tbaa !50
  %23 = load ptr, ptr %9, align 8, !tbaa !83
  %24 = getelementptr inbounds nuw %struct.attr_hash_entry, ptr %23, i32 0, i32 3
  store ptr %22, ptr %24, align 8, !tbaa !85
  %25 = load ptr, ptr %5, align 8, !tbaa !76
  %26 = getelementptr inbounds nuw %struct.attr_hashmap, ptr %25, i32 0, i32 0
  %27 = load ptr, ptr %9, align 8, !tbaa !83
  %28 = getelementptr inbounds nuw %struct.attr_hash_entry, ptr %27, i32 0, i32 0
  call void @hashmap_add(ptr noundef %26, ptr noundef %28)
  call void @llvm.lifetime.end.p0(i64 8, ptr %9) #11
  ret void
}

; Function Attrs: inlinehint nounwind uwtable
define internal i32 @hashmap_get_size(ptr noundef %0) #5 {
  %2 = alloca ptr, align 8
  store ptr %0, ptr %2, align 8, !tbaa !86
  %3 = load ptr, ptr %2, align 8, !tbaa !86
  %4 = getelementptr inbounds nuw %struct.hashmap, ptr %3, i32 0, i32 7
  %5 = load i8, ptr %4, align 8
  %6 = and i8 %5, 1
  %7 = zext i8 %6 to i32
  %8 = icmp ne i32 %7, 0
  br i1 %8, label %9, label %13

9:                                                ; preds = %1
  %10 = load ptr, ptr %2, align 8, !tbaa !86
  %11 = getelementptr inbounds nuw %struct.hashmap, ptr %10, i32 0, i32 3
  %12 = load i32, ptr %11, align 8, !tbaa !88
  ret i32 %12

13:                                               ; preds = %1
  call void (ptr, i32, ptr, ...) @BUG_fl(ptr noundef @.str.12, i32 noundef 308, ptr noundef @.str.13) #12
  unreachable
}

; Function Attrs: inlinehint nounwind uwtable
define internal i64 @st_add(i64 noundef %0, i64 noundef %1) #5 {
  %3 = alloca i64, align 8
  %4 = alloca i64, align 8
  store i64 %0, ptr %3, align 8, !tbaa !11
  store i64 %1, ptr %4, align 8, !tbaa !11
  %5 = load i64, ptr %4, align 8, !tbaa !11
  %6 = load i64, ptr %3, align 8, !tbaa !11
  %7 = sub i64 -1, %6
  %8 = icmp ugt i64 %5, %7
  br i1 %8, label %9, label %12

9:                                                ; preds = %2
  %10 = load i64, ptr %3, align 8, !tbaa !11
  %11 = load i64, ptr %4, align 8, !tbaa !11
  call void (ptr, ...) @die(ptr noundef @.str.18, i64 noundef %10, i64 noundef %11) #12
  unreachable

12:                                               ; preds = %2
  %13 = load i64, ptr %3, align 8, !tbaa !11
  %14 = load i64, ptr %4, align 8, !tbaa !11
  %15 = add i64 %13, %14
  ret i64 %15
}

; Function Attrs: nounwind uwtable
define internal ptr @attr_hashmap_get(ptr noundef %0, ptr noundef %1, i64 noundef %2) #0 {
  %4 = alloca ptr, align 8
  %5 = alloca ptr, align 8
  %6 = alloca i64, align 8
  %7 = alloca %struct.attr_hash_entry, align 8
  %8 = alloca ptr, align 8
  store ptr %0, ptr %4, align 8, !tbaa !76
  store ptr %1, ptr %5, align 8, !tbaa !9
  store i64 %2, ptr %6, align 8, !tbaa !11
  call void @llvm.lifetime.start.p0(i64 40, ptr %7) #11
  call void @llvm.lifetime.start.p0(i64 8, ptr %8) #11
  %9 = getelementptr inbounds nuw %struct.attr_hash_entry, ptr %7, i32 0, i32 0
  %10 = load ptr, ptr %5, align 8, !tbaa !9
  %11 = load i64, ptr %6, align 8, !tbaa !11
  %12 = call i32 @memhash(ptr noundef %10, i64 noundef %11)
  call void @hashmap_entry_init(ptr noundef %9, i32 noundef %12)
  %13 = load ptr, ptr %5, align 8, !tbaa !9
  %14 = getelementptr inbounds nuw %struct.attr_hash_entry, ptr %7, i32 0, i32 1
  store ptr %13, ptr %14, align 8, !tbaa !78
  %15 = load i64, ptr %6, align 8, !tbaa !11
  %16 = getelementptr inbounds nuw %struct.attr_hash_entry, ptr %7, i32 0, i32 2
  store i64 %15, ptr %16, align 8, !tbaa !82
  %17 = load ptr, ptr %4, align 8, !tbaa !76
  %18 = getelementptr inbounds nuw %struct.attr_hashmap, ptr %17, i32 0, i32 0
  %19 = getelementptr inbounds nuw %struct.attr_hash_entry, ptr %7, i32 0, i32 0
  %20 = call ptr @hashmap_get(ptr noundef %18, ptr noundef %19, ptr noundef null)
  %21 = call ptr @container_of_or_null_offset(ptr noundef %20, i64 noundef 0)
  store ptr %21, ptr %8, align 8, !tbaa !83
  %22 = load ptr, ptr %8, align 8, !tbaa !83
  %23 = icmp ne ptr %22, null
  br i1 %23, label %24, label %28

24:                                               ; preds = %3
  %25 = load ptr, ptr %8, align 8, !tbaa !83
  %26 = getelementptr inbounds nuw %struct.attr_hash_entry, ptr %25, i32 0, i32 3
  %27 = load ptr, ptr %26, align 8, !tbaa !85
  br label %29

28:                                               ; preds = %3
  br label %29

29:                                               ; preds = %28, %24
  %30 = phi ptr [ %27, %24 ], [ null, %28 ]
  call void @llvm.lifetime.end.p0(i64 8, ptr %8) #11
  call void @llvm.lifetime.end.p0(i64 40, ptr %7) #11
  ret ptr %30
}

; Function Attrs: inlinehint nounwind uwtable
define internal void @hashmap_lock(ptr noundef %0) #5 {
  %2 = alloca ptr, align 8
  store ptr %0, ptr %2, align 8, !tbaa !76
  %3 = load ptr, ptr %2, align 8, !tbaa !76
  %4 = getelementptr inbounds nuw %struct.attr_hashmap, ptr %3, i32 0, i32 1
  %5 = call i32 @pthread_mutex_lock(ptr noundef %4) #11
  ret void
}

; Function Attrs: nounwind uwtable
define internal i32 @attr_name_valid(ptr noundef %0, i64 noundef %1) #0 {
  %3 = alloca i32, align 4
  %4 = alloca ptr, align 8
  %5 = alloca i64, align 8
  %6 = alloca i8, align 1
  %7 = alloca i32, align 4
  store ptr %0, ptr %4, align 8, !tbaa !9
  store i64 %1, ptr %5, align 8, !tbaa !11
  %8 = load i64, ptr %5, align 8, !tbaa !11
  %9 = icmp ule i64 %8, 0
  br i1 %9, label %15, label %10

10:                                               ; preds = %2
  %11 = load ptr, ptr %4, align 8, !tbaa !9
  %12 = load i8, ptr %11, align 1, !tbaa !17
  %13 = sext i8 %12 to i32
  %14 = icmp eq i32 %13, 45
  br i1 %14, label %15, label %16

15:                                               ; preds = %10, %2
  store i32 0, ptr %3, align 4
  br label %66

16:                                               ; preds = %10
  br label %17

17:                                               ; preds = %64, %16
  %18 = load i64, ptr %5, align 8, !tbaa !11
  %19 = add i64 %18, -1
  store i64 %19, ptr %5, align 8, !tbaa !11
  %20 = icmp ne i64 %18, 0
  br i1 %20, label %21, label %65

21:                                               ; preds = %17
  call void @llvm.lifetime.start.p0(i64 1, ptr %6) #11
  %22 = load ptr, ptr %4, align 8, !tbaa !9
  %23 = getelementptr inbounds nuw i8, ptr %22, i32 1
  store ptr %23, ptr %4, align 8, !tbaa !9
  %24 = load i8, ptr %22, align 1, !tbaa !17
  store i8 %24, ptr %6, align 1, !tbaa !17
  %25 = load i8, ptr %6, align 1, !tbaa !17
  %26 = sext i8 %25 to i32
  %27 = icmp eq i32 %26, 45
  br i1 %27, label %61, label %28

28:                                               ; preds = %21
  %29 = load i8, ptr %6, align 1, !tbaa !17
  %30 = sext i8 %29 to i32
  %31 = icmp eq i32 %30, 46
  br i1 %31, label %61, label %32

32:                                               ; preds = %28
  %33 = load i8, ptr %6, align 1, !tbaa !17
  %34 = sext i8 %33 to i32
  %35 = icmp eq i32 %34, 95
  br i1 %35, label %61, label %36

36:                                               ; preds = %32
  %37 = load i8, ptr %6, align 1, !tbaa !17
  %38 = sext i8 %37 to i32
  %39 = icmp sle i32 48, %38
  br i1 %39, label %40, label %44

40:                                               ; preds = %36
  %41 = load i8, ptr %6, align 1, !tbaa !17
  %42 = sext i8 %41 to i32
  %43 = icmp sle i32 %42, 57
  br i1 %43, label %61, label %44

44:                                               ; preds = %40, %36
  %45 = load i8, ptr %6, align 1, !tbaa !17
  %46 = sext i8 %45 to i32
  %47 = icmp sle i32 97, %46
  br i1 %47, label %48, label %52

48:                                               ; preds = %44
  %49 = load i8, ptr %6, align 1, !tbaa !17
  %50 = sext i8 %49 to i32
  %51 = icmp sle i32 %50, 122
  br i1 %51, label %61, label %52

52:                                               ; preds = %48, %44
  %53 = load i8, ptr %6, align 1, !tbaa !17
  %54 = sext i8 %53 to i32
  %55 = icmp sle i32 65, %54
  br i1 %55, label %56, label %60

56:                                               ; preds = %52
  %57 = load i8, ptr %6, align 1, !tbaa !17
  %58 = sext i8 %57 to i32
  %59 = icmp sle i32 %58, 90
  br i1 %59, label %61, label %60

60:                                               ; preds = %56, %52
  store i32 0, ptr %3, align 4
  store i32 1, ptr %7, align 4
  br label %62

61:                                               ; preds = %56, %48, %40, %32, %28, %21
  store i32 0, ptr %7, align 4
  br label %62

62:                                               ; preds = %61, %60
  call void @llvm.lifetime.end.p0(i64 1, ptr %6) #11
  %63 = load i32, ptr %7, align 4
  switch i32 %63, label %68 [
    i32 0, label %64
    i32 1, label %66
  ]

64:                                               ; preds = %62
  br label %17, !llvm.loop !26

65:                                               ; preds = %17
  store i32 1, ptr %3, align 4
  br label %66

66:                                               ; preds = %65, %62, %15
  %67 = load i32, ptr %3, align 4
  ret i32 %67

68:                                               ; preds = %62
  unreachable
}

; Function Attrs: nounwind uwtable
define internal ptr @git_attr_internal(ptr noundef %0, i64 noundef %1) #0 {
  %3 = alloca ptr, align 8
  %4 = alloca ptr, align 8
  %5 = alloca i64, align 8
  %6 = alloca ptr, align 8
  %7 = alloca i32, align 4
  %8 = alloca i64, align 8
  store ptr %0, ptr %4, align 8, !tbaa !9
  store i64 %1, ptr %5, align 8, !tbaa !11
  call void @llvm.lifetime.start.p0(i64 8, ptr %6) #11
  %9 = load ptr, ptr %4, align 8, !tbaa !9
  %10 = load i64, ptr %5, align 8, !tbaa !11
  %11 = call i32 @attr_name_valid(ptr noundef %9, i64 noundef %10)
  %12 = icmp ne i32 %11, 0
  br i1 %12, label %14, label %13

13:                                               ; preds = %2
  store ptr null, ptr %3, align 8
  store i32 1, ptr %7, align 4
  br label %53

14:                                               ; preds = %2
  call void @hashmap_lock(ptr noundef @g_attr_hashmap)
  %15 = load ptr, ptr %4, align 8, !tbaa !9
  %16 = load i64, ptr %5, align 8, !tbaa !11
  %17 = call ptr @attr_hashmap_get(ptr noundef @g_attr_hashmap, ptr noundef %15, i64 noundef %16)
  store ptr %17, ptr %6, align 8, !tbaa !4
  %18 = load ptr, ptr %6, align 8, !tbaa !4
  %19 = icmp ne ptr %18, null
  br i1 %19, label %51, label %20

20:                                               ; preds = %14
  br label %21

21:                                               ; preds = %20
  call void @llvm.lifetime.start.p0(i64 8, ptr %8) #11
  %22 = load i64, ptr %5, align 8, !tbaa !11
  store i64 %22, ptr %8, align 8, !tbaa !11
  %23 = load i64, ptr %8, align 8, !tbaa !11
  %24 = call i64 @st_add(i64 noundef 4, i64 noundef %23)
  %25 = call i64 @st_add(i64 noundef %24, i64 noundef 1)
  %26 = call ptr @xcalloc(i64 noundef 1, i64 noundef %25)
  store ptr %26, ptr %6, align 8, !tbaa !4
  %27 = load ptr, ptr %6, align 8, !tbaa !4
  %28 = getelementptr inbounds nuw %struct.git_attr, ptr %27, i32 0, i32 1
  %29 = getelementptr inbounds [0 x i8], ptr %28, i64 0, i64 0
  %30 = load ptr, ptr %4, align 8, !tbaa !9
  %31 = load i64, ptr %8, align 8, !tbaa !11
  call void @llvm.memcpy.p0.p0.i64(ptr align 4 %29, ptr align 1 %30, i64 %31, i1 false)
  call void @llvm.lifetime.end.p0(i64 8, ptr %8) #11
  br label %32

32:                                               ; preds = %21
  br label %33

33:                                               ; preds = %32
  %34 = call i32 @hashmap_get_size(ptr noundef @g_attr_hashmap)
  %35 = load ptr, ptr %6, align 8, !tbaa !4
  %36 = getelementptr inbounds nuw %struct.git_attr, ptr %35, i32 0, i32 0
  store i32 %34, ptr %36, align 4, !tbaa !13
  %37 = load ptr, ptr %6, align 8, !tbaa !4
  %38 = getelementptr inbounds nuw %struct.git_attr, ptr %37, i32 0, i32 1
  %39 = getelementptr inbounds [0 x i8], ptr %38, i64 0, i64 0
  %40 = load i64, ptr %5, align 8, !tbaa !11
  %41 = load ptr, ptr %6, align 8, !tbaa !4
  call void @attr_hashmap_add(ptr noundef @g_attr_hashmap, ptr noundef %39, i64 noundef %40, ptr noundef %41)
  %42 = load ptr, ptr %6, align 8, !tbaa !4
  %43 = getelementptr inbounds nuw %struct.git_attr, ptr %42, i32 0, i32 0
  %44 = load i32, ptr %43, align 4, !tbaa !13
  %45 = call i32 @hashmap_get_size(ptr noundef @g_attr_hashmap)
  %46 = sub i32 %45, 1
  %47 = icmp ne i32 %44, %46
  br i1 %47, label %48, label %50

48:                                               ; preds = %33
  %49 = call ptr @_(ptr noundef @.str.11)
  call void (ptr, ...) @die(ptr noundef %49) #12
  unreachable

50:                                               ; preds = %33
  br label %51

51:                                               ; preds = %50, %14
  call void @hashmap_unlock(ptr noundef @g_attr_hashmap)
  %52 = load ptr, ptr %6, align 8, !tbaa !4
  store ptr %52, ptr %3, align 8
  store i32 1, ptr %7, align 4
  br label %53

53:                                               ; preds = %51, %13
  call void @llvm.lifetime.end.p0(i64 8, ptr %6) #11
  %54 = load ptr, ptr %3, align 8
  ret ptr %54
}