; Function Attrs: nounwind uwtable
define internal fastcc ptr @git_attr_internal(ptr noundef %0, i64 noundef %1) unnamed_addr #1 {
  %3 = alloca %struct.attr_hash_entry, align 8
  %4 = icmp eq i64 %1, 0
  br i1 %4, label %attr_name_valid.exit.thread, label %5

5:                                                ; preds = %2
  %6 = load i8, ptr %0, align 1, !tbaa !4
  %7 = icmp eq i8 %6, 45
  br i1 %7, label %attr_name_valid.exit.thread, label %.preheader.i

thread-pre-split.i:                               ; preds = %16
  %.pr.i = load i8, ptr %10, align 1, !tbaa !4
  br label %.preheader.i

.preheader.i:                                     ; preds = %5, %thread-pre-split.i
  %8 = phi i8 [ %.pr.i, %thread-pre-split.i ], [ %6, %5 ]
  %.in.i = phi i64 [ %9, %thread-pre-split.i ], [ %1, %5 ]
  %.03036.i = phi ptr [ %10, %thread-pre-split.i ], [ %0, %5 ]
  %9 = add i64 %.in.i, -1
  %10 = getelementptr inbounds nuw i8, ptr %.03036.i, i64 1
  switch i8 %8, label %11 [
    i8 95, label %16
    i8 46, label %16
    i8 45, label %16
  ]

11:                                               ; preds = %.preheader.i
  %12 = add i8 %8, -48
  %or.cond8.i = icmp ult i8 %12, 10
  %13 = and i8 %8, -33
  %14 = add i8 %13, -65
  %15 = icmp ult i8 %14, 26
  %or.cond33.i = or i1 %or.cond8.i, %15
  br i1 %or.cond33.i, label %16, label %attr_name_valid.exit.thread

16:                                               ; preds = %11, %.preheader.i, %.preheader.i, %.preheader.i
  %.not.i = icmp eq i64 %9, 0
  br i1 %.not.i, label %attr_name_valid.exit, label %thread-pre-split.i

attr_name_valid.exit:                             ; preds = %16
  %17 = tail call i32 @pthread_mutex_lock(ptr noundef nonnull getelementptr inbounds nuw (i8, ptr @g_attr_hashmap, i64 48)) #21
  call void @llvm.lifetime.start.p0(i64 40, ptr nonnull %3) #21
  %18 = tail call i32 @memhash(ptr noundef nonnull %0, i64 noundef %1) #21
  %19 = getelementptr inbounds nuw i8, ptr %3, i64 8
  store i32 %18, ptr %19, align 8, !tbaa !7
  store ptr null, ptr %3, align 8, !tbaa !12
  %20 = getelementptr inbounds nuw i8, ptr %3, i64 16
  store ptr %0, ptr %20, align 8, !tbaa !13
  %21 = getelementptr inbounds nuw i8, ptr %3, i64 24
  store i64 %1, ptr %21, align 8, !tbaa !17
  %22 = call ptr @hashmap_get(ptr noundef nonnull @g_attr_hashmap, ptr noundef nonnull %3, ptr noundef null) #21
  %.not.i20 = icmp eq ptr %22, null
  br i1 %.not.i20, label %attr_hashmap_get.exit.thread, label %attr_hashmap_get.exit

attr_hashmap_get.exit.thread:                     ; preds = %attr_name_valid.exit
  call void @llvm.lifetime.end.p0(i64 40, ptr nonnull %3) #21
  br label %25

attr_hashmap_get.exit:                            ; preds = %attr_name_valid.exit
  %23 = getelementptr inbounds nuw i8, ptr %22, i64 32
  %24 = load ptr, ptr %23, align 8, !tbaa !18
  call void @llvm.lifetime.end.p0(i64 40, ptr nonnull %3) #21
  %.not18 = icmp eq ptr %24, null
  br i1 %.not18, label %25, label %51

25:                                               ; preds = %attr_hashmap_get.exit.thread, %attr_hashmap_get.exit
  %26 = icmp ugt i64 %1, -5
  br i1 %26, label %27, label %st_add.exit

27:                                               ; preds = %25
  call void (ptr, ...) @die(ptr noundef nonnull @.str.18, i64 noundef 4, i64 noundef %1) #22
  unreachable

st_add.exit:                                      ; preds = %25
  %28 = icmp eq i64 %1, -5
  br i1 %28, label %29, label %st_add.exit21

29:                                               ; preds = %st_add.exit
  call void (ptr, ...) @die(ptr noundef nonnull @.str.18, i64 noundef -1, i64 noundef 1) #22
  unreachable

st_add.exit21:                                    ; preds = %st_add.exit
  %30 = add nuw i64 %1, 5
  %31 = call ptr @xcalloc(i64 noundef 1, i64 noundef %30) #21
  %32 = getelementptr inbounds nuw i8, ptr %31, i64 4
  call void @llvm.memcpy.p0.p0.i64(ptr nonnull align 4 %32, ptr nonnull align 1 %0, i64 %1, i1 false)
  %33 = load i8, ptr getelementptr inbounds nuw (i8, ptr @g_attr_hashmap, i64 40), align 8
  %34 = and i8 %33, 1
  %.not.i22 = icmp eq i8 %34, 0
  br i1 %.not.i22, label %35, label %hashmap_get_size.exit

35:                                               ; preds = %st_add.exit21
  call void (ptr, i32, ptr, ...) @BUG_fl(ptr noundef nonnull @.str.12, i32 noundef 308, ptr noundef nonnull @.str.13) #22
  unreachable

hashmap_get_size.exit:                            ; preds = %st_add.exit21
  %36 = load i32, ptr getelementptr inbounds nuw (i8, ptr @g_attr_hashmap, i64 24), align 8, !tbaa !19
  store i32 %36, ptr %31, align 4, !tbaa !22
  %37 = call ptr @xmalloc(i64 noundef 40) #21
  %38 = call i32 @memhash(ptr noundef nonnull %32, i64 noundef %1) #21
  %39 = getelementptr inbounds nuw i8, ptr %37, i64 8
  store i32 %38, ptr %39, align 8, !tbaa !7
  store ptr null, ptr %37, align 8, !tbaa !12
  %40 = getelementptr inbounds nuw i8, ptr %37, i64 16
  store ptr %32, ptr %40, align 8, !tbaa !13
  %41 = getelementptr inbounds nuw i8, ptr %37, i64 24
  store i64 %1, ptr %41, align 8, !tbaa !17
  %42 = getelementptr inbounds nuw i8, ptr %37, i64 32
  store ptr %31, ptr %42, align 8, !tbaa !18
  call void @hashmap_add(ptr noundef nonnull @g_attr_hashmap, ptr noundef nonnull %37) #21
  %43 = load i8, ptr getelementptr inbounds nuw (i8, ptr @g_attr_hashmap, i64 40), align 8
  %44 = and i8 %43, 1
  %.not.i23 = icmp eq i8 %44, 0
  br i1 %.not.i23, label %45, label %hashmap_get_size.exit24

45:                                               ; preds = %hashmap_get_size.exit
  call void (ptr, i32, ptr, ...) @BUG_fl(ptr noundef nonnull @.str.12, i32 noundef 308, ptr noundef nonnull @.str.13) #22
  unreachable

hashmap_get_size.exit24:                          ; preds = %hashmap_get_size.exit
  %46 = load i32, ptr %31, align 4, !tbaa !22
  %47 = load i32, ptr getelementptr inbounds nuw (i8, ptr @g_attr_hashmap, i64 24), align 8, !tbaa !19
  %48 = add i32 %47, -1
  %.not19 = icmp eq i32 %46, %48
  br i1 %.not19, label %51, label %49

49:                                               ; preds = %hashmap_get_size.exit24
  %50 = call fastcc ptr @_(ptr noundef nonnull @.str.11)
  call void (ptr, ...) @die(ptr noundef %50) #22
  unreachable

51:                                               ; preds = %hashmap_get_size.exit24, %attr_hashmap_get.exit
  %.016 = phi ptr [ %24, %attr_hashmap_get.exit ], [ %31, %hashmap_get_size.exit24 ]
  %52 = call i32 @pthread_mutex_unlock(ptr noundef nonnull getelementptr inbounds nuw (i8, ptr @g_attr_hashmap, i64 48)) #21
  br label %attr_name_valid.exit.thread

attr_name_valid.exit.thread:                      ; preds = %11, %2, %5, %51
  %.0 = phi ptr [ %.016, %51 ], [ null, %5 ], [ null, %2 ], [ null, %11 ]
  ret ptr %.0
}